target datalayout = "e-m:e-p270:32:32-p271:32:32-p272:64:64-i64:64-i128:128-f80:128-n8:16:32:64-S128"
target triple = "x86_64-pc-linux-gnu"

%struct.lua_State = type { ptr, i8, i8, i8, i8, i16, %union.StkIdRel, ptr, ptr, %union.StkIdRel, %union.StkIdRel, ptr, %union.StkIdRel, ptr, ptr, ptr, %struct.CallInfo, ptr, i64, i32, i32, i32, i32, i32, %struct.anon.2 }
%union.StkIdRel = type { ptr }
%struct.CallInfo = type { %union.StkIdRel, %union.StkIdRel, ptr, ptr, %union.anon, %union.anon.1, i32 }
%union.anon = type { %struct.anon.0 }
%struct.anon.0 = type { ptr, i64, i64 }
%union.anon.1 = type { i32 }
%struct.anon.2 = type { i32, i32 }
%struct.TValue = type { %union.Value, i8 }
%union.Value = type { ptr }
%union.StackValue = type { %struct.TValue }
%struct.anon = type { ptr, i32, i32 }
%struct.Proto = type { ptr, i8, i8, i8, i8, i8, i32, i32, i32, i32, i32, i32, i32, i32, i32, ptr, ptr, ptr, ptr, ptr, ptr, ptr, ptr, ptr }

; Function Attrs: nounwind uwtable
define hidden void @luaT_adjustvarargs(ptr noundef %0, i32 noundef %1, ptr noundef %2, ptr noundef %3) #0 {
  %5 = alloca ptr, align 8
  %6 = alloca i32, align 4
  %7 = alloca ptr, align 8
  %8 = alloca ptr, align 8
  %9 = alloca i32, align 4
  %10 = alloca i32, align 4
  %11 = alloca i32, align 4
  %12 = alloca ptr, align 8
  %13 = alloca ptr, align 8
  %14 = alloca ptr, align 8
  %15 = alloca ptr, align 8
  store ptr %0, ptr %5, align 8, !tbaa !4
  store i32 %1, ptr %6, align 4, !tbaa !9
  store ptr %2, ptr %7, align 8, !tbaa !51
  store ptr %3, ptr %8, align 8, !tbaa !52
  call void @llvm.lifetime.start.p0(i64 4, ptr %9) #6
  call void @llvm.lifetime.start.p0(i64 4, ptr %10) #6
  %16 = load ptr, ptr %5, align 8, !tbaa !4
  %17 = getelementptr inbounds nuw %struct.lua_State, ptr %16, i32 0, i32 6
  %18 = load ptr, ptr %17, align 8, !tbaa !36
  %19 = load ptr, ptr %7, align 8, !tbaa !51
  %20 = getelementptr inbounds nuw %struct.CallInfo, ptr %19, i32 0, i32 0
  %21 = load ptr, ptr %20, align 8, !tbaa !36
  %22 = ptrtoint ptr %18 to i64
  %23 = ptrtoint ptr %21 to i64
  %24 = sub i64 %22, %23
  %25 = sdiv exact i64 %24, 16
  %26 = trunc i64 %25 to i32
  %27 = sub nsw i32 %26, 1
  store i32 %27, ptr %10, align 4, !tbaa !9
  call void @llvm.lifetime.start.p0(i64 4, ptr %11) #6
  %28 = load i32, ptr %10, align 4, !tbaa !9
  %29 = load i32, ptr %6, align 4, !tbaa !9
  %30 = sub nsw i32 %28, %29
  store i32 %30, ptr %11, align 4, !tbaa !9
  %31 = load i32, ptr %11, align 4, !tbaa !9
  %32 = load ptr, ptr %7, align 8, !tbaa !51
  %33 = getelementptr inbounds nuw %struct.CallInfo, ptr %32, i32 0, i32 4
  %34 = getelementptr inbounds nuw %struct.anon, ptr %33, i32 0, i32 2
  store i32 %31, ptr %34, align 4, !tbaa !36
  %35 = load ptr, ptr %5, align 8, !tbaa !4
  %36 = getelementptr inbounds nuw %struct.lua_State, ptr %35, i32 0, i32 9
  %37 = load ptr, ptr %36, align 8, !tbaa !36
  %38 = load ptr, ptr %5, align 8, !tbaa !4
  %39 = getelementptr inbounds nuw %struct.lua_State, ptr %38, i32 0, i32 6
  %40 = load ptr, ptr %39, align 8, !tbaa !36
  %41 = ptrtoint ptr %37 to i64
  %42 = ptrtoint ptr %40 to i64
  %43 = sub i64 %41, %42
  %44 = sdiv exact i64 %43, 16
  %45 = load ptr, ptr %8, align 8, !tbaa !52
  %46 = getelementptr inbounds nuw %struct.Proto, ptr %45, i32 0, i32 5
  %47 = load i8, ptr %46, align 4, !tbaa !54
  %48 = zext i8 %47 to i32
  %49 = add nsw i32 %48, 1
  %50 = sext i32 %49 to i64
  %51 = icmp sle i64 %44, %50
  %52 = zext i1 %51 to i32
  %53 = icmp ne i32 %52, 0
  %54 = zext i1 %53 to i32
  %55 = sext i32 %54 to i64
  %56 = call i64 @llvm.expect.i64(i64 %55, i64 0)
  %57 = icmp ne i64 %56, 0
  br i1 %57, label %58, label %66

58:                                               ; preds = %4
  %59 = load ptr, ptr %5, align 8, !tbaa !4
  %60 = load ptr, ptr %8, align 8, !tbaa !52
  %61 = getelementptr inbounds nuw %struct.Proto, ptr %60, i32 0, i32 5
  %62 = load i8, ptr %61, align 4, !tbaa !54
  %63 = zext i8 %62 to i32
  %64 = add nsw i32 %63, 1
  %65 = call i32 @luaD_growstack(ptr noundef %59, i32 noundef %64, i32 noundef 1)
  br label %67

66:                                               ; preds = %4
  br label %67

67:                                               ; preds = %66, %58
  call void @llvm.lifetime.start.p0(i64 8, ptr %12) #6
  %68 = load ptr, ptr %5, align 8, !tbaa !4
  %69 = getelementptr inbounds nuw %struct.lua_State, ptr %68, i32 0, i32 6
  %70 = load ptr, ptr %69, align 8, !tbaa !36
  %71 = getelementptr inbounds nuw %union.StackValue, ptr %70, i32 1
  store ptr %71, ptr %69, align 8, !tbaa !36
  store ptr %70, ptr %12, align 8, !tbaa !28
  call void @llvm.lifetime.start.p0(i64 8, ptr %13) #6
  %72 = load ptr, ptr %7, align 8, !tbaa !51
  %73 = getelementptr inbounds nuw %struct.CallInfo, ptr %72, i32 0, i32 0
  %74 = load ptr, ptr %73, align 8, !tbaa !36
  store ptr %74, ptr %13, align 8, !tbaa !28
  %75 = load ptr, ptr %12, align 8, !tbaa !28
  %76 = getelementptr inbounds nuw %struct.TValue, ptr %75, i32 0, i32 0
  %77 = load ptr, ptr %13, align 8, !tbaa !28
  %78 = getelementptr inbounds nuw %struct.TValue, ptr %77, i32 0, i32 0
  call void @llvm.memcpy.p0.p0.i64(ptr align 8 %76, ptr align 8 %78, i64 8, i1 false), !tbaa.struct !45
  %79 = load ptr, ptr %13, align 8, !tbaa !28
  %80 = getelementptr inbounds nuw %struct.TValue, ptr %79, i32 0, i32 1
  %81 = load i8, ptr %80, align 8, !tbaa !30
  %82 = load ptr, ptr %12, align 8, !tbaa !28
  %83 = getelementptr inbounds nuw %struct.TValue, ptr %82, i32 0, i32 1
  store i8 %81, ptr %83, align 8, !tbaa !30
  call void @llvm.lifetime.end.p0(i64 8, ptr %13) #6
  call void @llvm.lifetime.end.p0(i64 8, ptr %12) #6
  store i32 1, ptr %9, align 4, !tbaa !9
  br label %84

84:                                               ; preds = %115, %67
  %85 = load i32, ptr %9, align 4, !tbaa !9
  %86 = load i32, ptr %6, align 4, !tbaa !9
  %87 = icmp sle i32 %85, %86
  br i1 %87, label %88, label %118

88:                                               ; preds = %84
  call void @llvm.lifetime.start.p0(i64 8, ptr %14) #6
  %89 = load ptr, ptr %5, align 8, !tbaa !4
  %90 = getelementptr inbounds nuw %struct.lua_State, ptr %89, i32 0, i32 6
  %91 = load ptr, ptr %90, align 8, !tbaa !36
  %92 = getelementptr inbounds nuw %union.StackValue, ptr %91, i32 1
  store ptr %92, ptr %90, align 8, !tbaa !36
  store ptr %91, ptr %14, align 8, !tbaa !28
  call void @llvm.lifetime.start.p0(i64 8, ptr %15) #6
  %93 = load ptr, ptr %7, align 8, !tbaa !51
  %94 = getelementptr inbounds nuw %struct.CallInfo, ptr %93, i32 0, i32 0
  %95 = load ptr, ptr %94, align 8, !tbaa !36
  %96 = load i32, ptr %9, align 4, !tbaa !9
  %97 = sext i32 %96 to i64
  %98 = getelementptr inbounds %union.StackValue, ptr %95, i64 %97
  store ptr %98, ptr %15, align 8, !tbaa !28
  %99 = load ptr, ptr %14, align 8, !tbaa !28
  %100 = getelementptr inbounds nuw %struct.TValue, ptr %99, i32 0, i32 0
  %101 = load ptr, ptr %15, align 8, !tbaa !28
  %102 = getelementptr inbounds nuw %struct.TValue, ptr %101, i32 0, i32 0
  call void @llvm.memcpy.p0.p0.i64(ptr align 8 %100, ptr align 8 %102, i64 8, i1 false), !tbaa.struct !45
  %103 = load ptr, ptr %15, align 8, !tbaa !28
  %104 = getelementptr inbounds nuw %struct.TValue, ptr %103, i32 0, i32 1
  %105 = load i8, ptr %104, align 8, !tbaa !30
  %106 = load ptr, ptr %14, align 8, !tbaa !28
  %107 = getelementptr inbounds nuw %struct.TValue, ptr %106, i32 0, i32 1
  store i8 %105, ptr %107, align 8, !tbaa !30
  call void @llvm.lifetime.end.p0(i64 8, ptr %15) #6
  call void @llvm.lifetime.end.p0(i64 8, ptr %14) #6
  %108 = load ptr, ptr %7, align 8, !tbaa !51
  %109 = getelementptr inbounds nuw %struct.CallInfo, ptr %108, i32 0, i32 0
  %110 = load ptr, ptr %109, align 8, !tbaa !36
  %111 = load i32, ptr %9, align 4, !tbaa !9
  %112 = sext i32 %111 to i64
  %113 = getelementptr inbounds %union.StackValue, ptr %110, i64 %112
  %114 = getelementptr inbounds nuw %struct.TValue, ptr %113, i32 0, i32 1
  store i8 0, ptr %114, align 8, !tbaa !36
  br label %115

115:                                              ; preds = %88
  %116 = load i32, ptr %9, align 4, !tbaa !9
  %117 = add nsw i32 %116, 1
  store i32 %117, ptr %9, align 4, !tbaa !9
  br label %84

118:                                              ; preds = %84
  %119 = load i32, ptr %10, align 4, !tbaa !9
  %120 = add nsw i32 %119, 1
  %121 = load ptr, ptr %7, align 8, !tbaa !51
  %122 = getelementptr inbounds nuw %struct.CallInfo, ptr %121, i32 0, i32 0
  %123 = load ptr, ptr %122, align 8, !tbaa !36
  %124 = sext i32 %120 to i64
  %125 = getelementptr inbounds %union.StackValue, ptr %123, i64 %124
  store ptr %125, ptr %122, align 8, !tbaa !36
  %126 = load i32, ptr %10, align 4, !tbaa !9
  %127 = add nsw i32 %126, 1
  %128 = load ptr, ptr %7, align 8, !tbaa !51
  %129 = getelementptr inbounds nuw %struct.CallInfo, ptr %128, i32 0, i32 1
  %130 = load ptr, ptr %129, align 8, !tbaa !36
  %131 = sext i32 %127 to i64
  %132 = getelementptr inbounds %union.StackValue, ptr %130, i64 %131
  store ptr %132, ptr %129, align 8, !tbaa !36
  call void @llvm.lifetime.end.p0(i64 4, ptr %11) #6
  call void @llvm.lifetime.end.p0(i64 4, ptr %10) #6
  call void @llvm.lifetime.end.p0(i64 4, ptr %9) #6
  ret void
}