; Function Attrs: nounwind uwtable
define hidden void @luaT_adjustvarargs(ptr noundef %0, i32 noundef %1, ptr noundef captures(none) initializes((44, 48)) %2, ptr noundef readonly captures(none) %3) local_unnamed_addr #0 {
  %5 = getelementptr inbounds nuw i8, ptr %0, i64 16
  %6 = load ptr, ptr %5, align 8, !tbaa !31
  %7 = load ptr, ptr %2, align 8, !tbaa !31
  %8 = ptrtoint ptr %6 to i64
  %9 = ptrtoint ptr %7 to i64
  %10 = sub i64 %8, %9
  %11 = lshr exact i64 %10, 4
  %12 = trunc i64 %11 to i32
  %13 = xor i32 %1, -1
  %14 = add i32 %12, %13
  %15 = getelementptr inbounds nuw i8, ptr %2, i64 44
  store i32 %14, ptr %15, align 4, !tbaa !31
  %16 = getelementptr inbounds nuw i8, ptr %0, i64 40
  %17 = load ptr, ptr %16, align 8, !tbaa !31
  %18 = load ptr, ptr %5, align 8, !tbaa !31
  %19 = ptrtoint ptr %17 to i64
  %20 = ptrtoint ptr %18 to i64
  %21 = sub i64 %19, %20
  %22 = ashr exact i64 %21, 4
  %23 = getelementptr inbounds nuw i8, ptr %3, i64 12
  %24 = load i8, ptr %23, align 4, !tbaa !42
  %25 = zext i8 %24 to i32
  %26 = add nuw nsw i32 %25, 1
  %27 = zext nneg i32 %26 to i64
  %.not = icmp sgt i64 %22, %27
  br i1 %.not, label %30, label %28, !prof !50

28:                                               ; preds = %4
  %29 = tail call i32 @luaD_growstack(ptr noundef nonnull %0, i32 noundef %26, i32 noundef 1) #5
  %.pre = load ptr, ptr %5, align 8, !tbaa !31
  br label %30

30:                                               ; preds = %4, %28
  %31 = phi ptr [ %18, %4 ], [ %.pre, %28 ]
  %32 = getelementptr inbounds nuw i8, ptr %31, i64 16
  store ptr %32, ptr %5, align 8, !tbaa !31
  %33 = load ptr, ptr %2, align 8, !tbaa !31
  %34 = load i64, ptr %33, align 8, !tbaa !31
  store i64 %34, ptr %31, align 8, !tbaa !31
  %35 = getelementptr inbounds nuw i8, ptr %33, i64 8
  %36 = load i8, ptr %35, align 8, !tbaa !24
  %37 = getelementptr inbounds nuw i8, ptr %31, i64 8
  store i8 %36, ptr %37, align 8, !tbaa !24
  %.not3233 = icmp slt i32 %1, 1
  br i1 %.not3233, label %._crit_edge, label %.lr.ph.preheader

.lr.ph.preheader:                                 ; preds = %30
  %38 = add nuw i32 %1, 1
  %wide.trip.count = zext i32 %38 to i64
  br label %.lr.ph

.lr.ph:                                           ; preds = %.lr.ph.preheader, %.lr.ph
  %indvars.iv = phi i64 [ 1, %.lr.ph.preheader ], [ %indvars.iv.next, %.lr.ph ]
  %39 = load ptr, ptr %5, align 8, !tbaa !31
  %40 = getelementptr inbounds nuw i8, ptr %39, i64 16
  store ptr %40, ptr %5, align 8, !tbaa !31
  %41 = load ptr, ptr %2, align 8, !tbaa !31
  %42 = getelementptr inbounds nuw %union.StackValue, ptr %41, i64 %indvars.iv
  %43 = load i64, ptr %42, align 8, !tbaa !31
  store i64 %43, ptr %39, align 8, !tbaa !31
  %44 = getelementptr inbounds nuw i8, ptr %42, i64 8
  %45 = load i8, ptr %44, align 8, !tbaa !24
  %46 = getelementptr inbounds nuw i8, ptr %39, i64 8
  store i8 %45, ptr %46, align 8, !tbaa !24
  %47 = load ptr, ptr %2, align 8, !tbaa !31
  %48 = getelementptr inbounds nuw %union.StackValue, ptr %47, i64 %indvars.iv, i32 0, i32 1
  store i8 0, ptr %48, align 8, !tbaa !31
  %indvars.iv.next = add nuw nsw i64 %indvars.iv, 1
  %exitcond.not = icmp eq i64 %indvars.iv.next, %wide.trip.count
  br i1 %exitcond.not, label %._crit_edge, label %.lr.ph

._crit_edge:                                      ; preds = %.lr.ph, %30
  %49 = load ptr, ptr %2, align 8, !tbaa !31
  %sext = shl i64 %10, 28
  %50 = ashr i64 %sext, 32
  %51 = getelementptr inbounds %union.StackValue, ptr %49, i64 %50
  store ptr %51, ptr %2, align 8, !tbaa !31
  %52 = getelementptr inbounds nuw i8, ptr %2, i64 8
  %53 = load ptr, ptr %52, align 8, !tbaa !31
  %54 = getelementptr inbounds %union.StackValue, ptr %53, i64 %50
  store ptr %54, ptr %52, align 8, !tbaa !31
  ret void
}